; Function Attrs: mustprogress nounwind uwtable
define hidden void @_ZN10duckdb_re26Regexp10ParseStateD2Ev(ptr noundef nonnull readonly align 8 captures(none) dereferenceable(48) %0) unnamed_addr #3 align 2 personality ptr @__gxx_personality_v0 {
  %2 = getelementptr inbounds nuw i8, ptr %0, i64 32
  %3 = load ptr, ptr %2, align 8, !tbaa !20
  br label %4

4:                                                ; preds = %22, %1
  %.0 = phi ptr [ %3, %1 ], [ %8, %22 ]
  %.not = icmp eq ptr %.0, null
  br i1 %.not, label %5, label %6

5:                                                ; preds = %4
  ret void

6:                                                ; preds = %4
  %7 = getelementptr inbounds nuw i8, ptr %.0, i64 16
  %8 = load ptr, ptr %7, align 8, !tbaa !23
  store ptr null, ptr %7, align 8, !tbaa !23
  %9 = load i8, ptr %.0, align 8, !tbaa !26
  %10 = icmp eq i8 %9, 22
  br i1 %10, label %11, label %22

11:                                               ; preds = %6
  %12 = getelementptr inbounds nuw i8, ptr %.0, i64 32
  %13 = load ptr, ptr %12, align 8, !tbaa !27
  %14 = icmp eq ptr %13, null
  br i1 %14, label %22, label %15

15:                                               ; preds = %11
  %16 = load ptr, ptr %13, align 8, !tbaa !28
  %17 = getelementptr inbounds nuw i8, ptr %13, i64 16
  %18 = icmp eq ptr %16, %17
  br i1 %18, label %_ZNKSt7__cxx1112basic_stringIcSt11char_traitsIcESaIcEE11_M_is_localEv.exit.thread.i.i, label %_ZNKSt7__cxx1112basic_stringIcSt11char_traitsIcESaIcEE11_M_is_localEv.exit.i.i

_ZNKSt7__cxx1112basic_stringIcSt11char_traitsIcESaIcEE11_M_is_localEv.exit.thread.i.i: ; preds = %15
  %19 = getelementptr inbounds nuw i8, ptr %13, i64 8
  %20 = load i64, ptr %19, align 8, !tbaa !31
  %21 = icmp ult i64 %20, 16
  tail call void @llvm.assume(i1 %21)
  br label %_ZNSt7__cxx1112basic_stringIcSt11char_traitsIcESaIcEED2Ev.exit

_ZNKSt7__cxx1112basic_stringIcSt11char_traitsIcESaIcEE11_M_is_localEv.exit.i.i: ; preds = %15
  tail call void @_ZdlPv(ptr noundef %16) #30
  br label %_ZNSt7__cxx1112basic_stringIcSt11char_traitsIcESaIcEED2Ev.exit

_ZNSt7__cxx1112basic_stringIcSt11char_traitsIcESaIcEED2Ev.exit: ; preds = %_ZNKSt7__cxx1112basic_stringIcSt11char_traitsIcESaIcEE11_M_is_localEv.exit.thread.i.i, %_ZNKSt7__cxx1112basic_stringIcSt11char_traitsIcESaIcEE11_M_is_localEv.exit.i.i
  tail call void @_ZdlPv(ptr noundef nonnull %13) #30
  br label %22

22:                                               ; preds = %11, %_ZNSt7__cxx1112basic_stringIcSt11char_traitsIcESaIcEED2Ev.exit, %6
  invoke void @_ZN10duckdb_re26Regexp6DecrefEv(ptr noundef nonnull align 8 dereferenceable(40) %.0)
          to label %4 unwind label %23, !llvm.loop !32

23:                                               ; preds = %22
  %24 = landingpad { ptr, i32 }
          catch ptr null
  %25 = extractvalue { ptr, i32 } %24, 0
  tail call void @__clang_call_terminate(ptr %25) #31
  unreachable
}